; Function Attrs: mustprogress nounwind uwtable
define void @_ZN5draco22AdaptiveRAnsBitEncoderD2Ev(ptr noundef nonnull align 8 captures(none) dereferenceable(40) initializes((16, 28)) %0) unnamed_addr #4 align 2 personality ptr @__gxx_personality_v0 {
  %2 = load ptr, ptr %0, align 8, !tbaa !3
  %3 = getelementptr inbounds nuw i8, ptr %0, i64 16
  store ptr %2, ptr %3, align 8
  %.sroa.2.0..sroa_idx.i.i.i = getelementptr inbounds nuw i8, ptr %0, i64 24
  store i32 0, ptr %.sroa.2.0..sroa_idx.i.i.i, align 8
  %.not.i.i = icmp eq ptr %2, null
  br i1 %.not.i.i, label %_ZNSt13_Bvector_baseISaIbEED2Ev.exit, label %4

4:                                                ; preds = %1
  %5 = getelementptr inbounds nuw i8, ptr %0, i64 32
  %6 = load ptr, ptr %5, align 8, !tbaa !11
  %7 = ptrtoint ptr %6 to i64
  %8 = ptrtoint ptr %2 to i64
  %9 = sub i64 %7, %8
  %10 = ashr exact i64 %9, 3
  %11 = sub nsw i64 0, %10
  %12 = getelementptr inbounds i64, ptr %6, i64 %11
  tail call void @_ZdlPvm(ptr noundef %12, i64 noundef %9) #16
  store ptr null, ptr %0, align 8
  %.sroa.4.0..sroa_idx.i.i.i = getelementptr inbounds nuw i8, ptr %0, i64 8
  store i32 0, ptr %.sroa.4.0..sroa_idx.i.i.i, align 8
  store ptr null, ptr %3, align 8
  store i32 0, ptr %.sroa.2.0..sroa_idx.i.i.i, align 8
  store ptr null, ptr %5, align 8
  br label %_ZNSt13_Bvector_baseISaIbEED2Ev.exit

_ZNSt13_Bvector_baseISaIbEED2Ev.exit:             ; preds = %1, %4
  ret void
}